; Function Attrs: nounwind sspstrong uwtable
define internal i32 @vhdx_has_zero_init(ptr noundef readonly captures(none) %bs) #0 {
entry:
  %opaque = getelementptr inbounds nuw i8, ptr %bs, i64 24
  %0 = load ptr, ptr %opaque, align 8
  %bat_entries = getelementptr inbounds nuw i8, ptr %0, i64 440
  %1 = load i32, ptr %bat_entries, align 8
  %tobool.not = icmp eq i32 %1, 0
  br i1 %tobool.not, label %return, label %if.end

if.end:                                           ; preds = %entry
  %bat = getelementptr inbounds nuw i8, ptr %0, i64 448
  %2 = load ptr, ptr %bat, align 8
  %3 = load i64, ptr %2, align 8
  %conv3 = and i64 %3, 7
  %cmp = icmp eq i64 %conv3, 6
  br i1 %cmp, label %if.then2, label %return

if.then2:                                         ; preds = %if.end
  %file = getelementptr inbounds nuw i8, ptr %bs, i64 16840
  %4 = load ptr, ptr %file, align 8
  %5 = load ptr, ptr %4, align 8
  %call = tail call i32 @bdrv_has_zero_init(ptr noundef %5) #17
  br label %return

return:                                           ; preds = %if.end, %entry, %if.then2
  %retval.0 = phi i32 [ %call, %if.then2 ], [ 1, %entry ], [ 1, %if.end ]
  ret i32 %retval.0
}